EXPORTS
	_ZN10TDestroyerI21TContextConfigurationE7DestroyERS0_ @ 1 NONAME
	_ZN10TDestroyerI25TSendSmsDataAndAttributesE7DestroyERS0_ @ 2 NONAME
	_ZN10TDestroyerI31TMmMbmsMonitorServiceListParamsE7DestroyERS0_ @ 3 NONAME
	_ZN10TDestroyerIN12RMmCustomAPI13TOperatorLogoEE7DestroyERS1_ @ 4 NONAME
	_ZN10TDestroyerIP12CArrayPtrSegI20CPhoneBookStoreEntryEE7DestroyERS3_ @ 5 NONAME
	_ZN10TDestroyerIP20CPhoneBookStoreEntryE7DestroyERS1_ @ 6 NONAME
	_ZN10TDestroyerIP6TDesC8E7DestroyES1_ @ 7 NONAME
	_ZN10TDestroyerIPN12RMobilePhone14TMultimodeTypeEE7DestroyES2_ @ 8 NONAME
	_ZN11TComparatorI11TMbmsActionE7IsEqualERKS0_S3_ @ 9 NONAME
	_ZN11TComparatorI14TContextParamsE7IsEqualERKS0_S3_ @ 10 NONAME
	_ZN11TComparatorI16TENStoreResponseE7IsEqualERKS0_S3_ @ 11 NONAME
	_ZN11TComparatorI18CMobilePhoneCFListE7IsEqualERKS0_S3_ @ 12 NONAME
	_ZN11TComparatorI18CMobilePhoneCWListE7IsEqualERKS0_S3_ @ 13 NONAME
	_ZN11TComparatorI20CMobilePhoneListBaseE7IsEqualERKS0_S3_ @ 14 NONAME
	_ZN11TComparatorI20CMobilePhoneSmspListE7IsEqualERKS0_S3_ @ 15 NONAME
	_ZN11TComparatorI20TLockSettingPasswordE7IsEqualERKS0_S3_ @ 16 NONAME
	_ZN11TComparatorI21TContextConfigurationE7IsEqualERKS0_S3_ @ 17 NONAME
	_ZN11TComparatorI24TCbsCbmiAndLangAndFilterE7IsEqualERKS0_S3_ @ 18 NONAME
	_ZN11TComparatorI25TMbmsNetworkServiceStatusE7IsEqualERKS0_S3_ @ 19 NONAME
	_ZN11TComparatorI25TSendSmsDataAndAttributesE7IsEqualERKS0_S3_ @ 20 NONAME
	_ZN11TComparatorI27CMobilePhoneBroadcastIdListE7IsEqualERKS0_S3_ @ 21 NONAME
	_ZN11TComparatorI29CMobilePhoneStoredNetworkListE7IsEqualERKS0_S3_ @ 22 NONAME
	_ZN11TComparatorI29CPcktMbmsMonitoredServiceListE7IsEqualERKS0_S3_ @ 23 NONAME
	_ZN11TComparatorI30TMmMbmsActiveServiceListParamsE7IsEqualERKS0_S3_ @ 24 NONAME
	_ZN11TComparatorI31TMmMbmsMonitorServiceListParamsE7IsEqualERKS0_S3_ @ 25 NONAME
	_ZN11TComparatorI4TBufILi10EEE7IsEqualERKS1_S4_ @ 26 NONAME
	_ZN11TComparatorI4TBufILi30EEE7IsEqualERKS1_S4_ @ 27 NONAME
	_ZN11TComparatorI4TBufILi16EEE7IsEqualERKS1_S4_ @ 28 NONAME
	_ZN11TComparatorI4TBufILi32EEE7IsEqualERKS1_S4_ @ 29 NONAME
	_ZN11TComparatorI4TBufILi6EEE7IsEqualERKS1_S4_ @ 30 NONAME
	_ZN11TComparatorI5TBuf8ILi165EEE7IsEqualERKS1_S4_ @ 31 NONAME
	_ZN11TComparatorI5TBuf8ILi16EEE7IsEqualERKS1_S4_ @ 32 NONAME
	_ZN11TComparatorI5TBuf8ILi252EEE7IsEqualERKS1_S4_ @ 33 NONAME
	_ZN11TComparatorI5TBuf8ILi253EEE7IsEqualERKS1_S4_ @ 34 NONAME
	_ZN11TComparatorI5TBuf8ILi50EEE7IsEqualERKS1_S4_ @ 35 NONAME
	_ZN11TComparatorIN11RMobileCall17TMobileCallInfoV1EE7IsEqualERKS1_S4_ @ 36 NONAME
	_ZN11TComparatorIN11RMobileCall17TMobileCallInfoV8EE7IsEqualERKS1_S4_ @ 37 NONAME
	_ZN11TComparatorIN11RMobileCall19TMobileCallParamsV1EE7IsEqualERKS1_S4_ @ 38 NONAME
	_ZN11TComparatorIN11RMobileCall19TMobileCallParamsV7EE7IsEqualERKS1_S4_ @ 39 NONAME
	_ZN11TComparatorIN11RMobileCall22TMobileCallHscsdInfoV8EE7IsEqualERKS1_S4_ @ 40 NONAME
	_ZN11TComparatorIN11RMobileCall23TMobileDataCallParamsV8EE7IsEqualERKS1_S4_ @ 41 NONAME
	_ZN11TComparatorIN11RMobileCall24TMobileHscsdCallParamsV8EE7IsEqualERKS1_S4_ @ 42 NONAME
	_ZN11TComparatorIN11RMobileCall7TIconIdEE7IsEqualERKS1_S4_ @ 43 NONAME
	_ZN11TComparatorIN12RMmCustomAPI11TMmCellInfoEE7IsEqualERKS1_S4_ @ 44 NONAME
	_ZN11TComparatorIN12RMmCustomAPI12TSimFileInfoEE7IsEqualERKS1_S4_ @ 45 NONAME
	_ZN11TComparatorIN12RMmCustomAPI15TApduParametersEE7IsEqualERKS1_S4_ @ 46 NONAME
	_ZN11TComparatorIN12RMmCustomAPI18TViagCacheRecordIdEE7IsEqualERKS1_S4_ @ 47 NONAME
	_ZN11TComparatorIN12RMmCustomAPI20TEmerNumberCheckModeEE7IsEqualERKS1_S4_ @ 48 NONAME
	_ZN11TComparatorIN12RMmCustomAPI23TViagCacheRecordContentEE7IsEqualERKS1_S4_ @ 49 NONAME
	_ZN11TComparatorIN12RMmCustomAPI24TSimAuthenticationEapAkaEE7IsEqualERKS1_S4_ @ 50 NONAME
	_ZN11TComparatorIN12RMmCustomAPI24TSimAuthenticationEapSimEE7IsEqualERKS1_S4_ @ 51 NONAME
	_ZN11TComparatorIN12RMmCustomAPI30TSimAuthenticationGbaBootstrapEE7IsEqualERKS1_S4_ @ 52 NONAME
	_ZN11TComparatorIN12RMmCustomAPI30TSimAuthenticationMgvMskUpdateEE7IsEqualERKS1_S4_ @ 53 NONAME
	_ZN11TComparatorIN12RMmCustomAPI32TSimAuthenticationMgvMskDeletionEE7IsEqualERKS1_S4_ @ 54 NONAME
	_ZN11TComparatorIN12RMmCustomAPI34TSimAuthenticationGbaNafDerivationEE7IsEqualERKS1_S4_ @ 55 NONAME
	_ZN11TComparatorIN12RMmCustomAPI34TSimAuthenticationMgvMtkGenerationEE7IsEqualERKS1_S4_ @ 56 NONAME
	_ZN11TComparatorIN12RMmCustomAPI36TSimAuthenticationGbaBootstrapUpdateEE7IsEqualERKS1_S4_ @ 57 NONAME
	_ZN11TComparatorIN12RMmCustomAPI5TApduEE7IsEqualERKS1_S4_ @ 58 NONAME
	_ZN11TComparatorIN12RMobilePhone11TAPNEntryV3EE7IsEqualERKS1_S4_ @ 59 NONAME
	_ZN11TComparatorIN12RMobilePhone11TAuthInfoV8EE7IsEqualERKS1_S4_ @ 60 NONAME
	_ZN11TComparatorIN12RMobilePhone14TMobileAddressEE7IsEqualERKS1_S4_ @ 61 NONAME
	_ZN11TComparatorIN12RMobilePhone19TCodeAndUnblockCodeEE7IsEqualERKS1_S4_ @ 62 NONAME
	_ZN11TComparatorIN12RMobilePhone21TMobilePhoneCspFileV1EE7IsEqualERKS1_S4_ @ 63 NONAME
	_ZN11TComparatorIN12RMobilePhone22TImsAuthenticateDataV5EE7IsEqualERKS1_S4_ @ 64 NONAME
	_ZN11TComparatorIN12RMobilePhone22TMobilePhoneCBChangeV1EE7IsEqualERKS1_S4_ @ 65 NONAME
	_ZN11TComparatorIN12RMobilePhone22TMobilePhoneCFChangeV1EE7IsEqualERKS1_S4_ @ 66 NONAME
	_ZN11TComparatorIN12RMobilePhone24TMobilePhoneSecurityCodeEE7IsEqualERKS1_S4_ @ 67 NONAME
	_ZN11TComparatorIN12RMobilePhone26TMobilePhoneServiceTableV1EE7IsEqualERKS1_S4_ @ 68 NONAME
	_ZN11TComparatorIN12RMobilePhone28TMobilePhonePasswordChangeV1EE7IsEqualES1_S1_ @ 69 NONAME
	_ZN11TComparatorIN12RMobilePhone28TMobilePhonePasswordChangeV2EE7IsEqualES1_S1_ @ 70 NONAME
	_ZN11TComparatorIN12RMobilePhone34TMobilePhoneNetworkManualSelectionEE7IsEqualERKS1_S4_ @ 71 NONAME
	_ZN11TComparatorIN14RMobileONStore16TMobileONEntryV1EE7IsEqualES1_S1_ @ 72 NONAME
	_ZN11TComparatorIN14RPacketContext17TContextConfig_R5EE7IsEqualERKS1_S4_ @ 73 NONAME
	_ZN11TComparatorIN14RPacketContext18TContextConfigGPRSEE7IsEqualERKS1_S4_ @ 74 NONAME
	_ZN11TComparatorIN14RPacketContext20TContextConfigR99_R4EE7IsEqualERKS1_S4_ @ 75 NONAME
	_ZN11TComparatorIN14RPacketContext24CTFTMediaAuthorizationV3EE7IsEqualERKS1_S4_ @ 76 NONAME
	_ZN11TComparatorIN15RMobileSmsStore17TMobileSmsEntryV1EE7IsEqualERKS1_S4_ @ 77 NONAME
	_ZN11TComparatorIN15RMobileSmsStore20TMobileGsmSmsEntryV1EE7IsEqualERKS1_S4_ @ 78 NONAME
	_ZN11TComparatorIN17RMobilePhoneStore24TMobilePhoneStoreEntryV1EE7IsEqualERKS1_S4_ @ 79 NONAME
	_ZN11TComparatorIN19RMobileSmsMessaging18TMobileSmspEntryV1EE7IsEqualERKS1_S4_ @ 80 NONAME
	_ZN11TComparatorIN19RMobileSmsMessaging22TMobileSmsAttributesV1EE7IsEqualERKS1_S4_ @ 81 NONAME
	_ZN11TComparatorIN19RMobileSmsMessaging26TMobileSmsSendAttributesV1EE7IsEqualERKS1_S4_ @ 82 NONAME
	_ZN11TComparatorIN20RMobileUssdMessaging23TMobileUssdAttributesV1EE7IsEqualERKS1_S4_ @ 83 NONAME
	_ZN11TComparatorIN25RMobileBroadcastMessaging25TMobileBroadcastIdEntryV1EE7IsEqualERKS1_S4_ @ 84 NONAME
	_ZN11TComparatorIN5RCall9TCommPortEE7IsEqualES1_S1_ @ 85 NONAME
	_ZN11TComparatorIP12CArrayPtrSegI20CPhoneBookStoreEntryEE7IsEqualERKS3_S6_ @ 86 NONAME
	_ZN11TComparatorIP13CArrayFixFlatIN14RPacketContext15TPacketFilterV2EEE7IsEqualEPKS3_S7_ @ 87 NONAME
	_ZN11TComparatorIP20CPhoneBookStoreEntryE7IsEqualERKS1_S4_ @ 88 NONAME
	_ZN11TComparatorIP25CMobilePhoneNetworkListV2E7IsEqualEPKS0_S4_ @ 89 NONAME
	_ZN11TComparatorIP5TPckgIN14RMobileONStore16TMobileONEntryV1EEE7IsEqualEPKS3_S4_ @ 90 NONAME
	_ZN11TComparatorIP6TDesC8E7IsEqualEPKS0_S4_ @ 91 NONAME
	_ZN11TComparatorIPN21RMobilePhoneBookStore21TPBIndexAndNumEntriesEE7IsEqualERKS2_S5_ @ 92 NONAME
	_ZN11TSerializerI18CMobilePhoneCFListE10SerialiseLERKS0_R5RBuf8 @ 93 NONAME
	_ZN11TSerializerI18CMobilePhoneCFListE12DeserialiseLERK6TDesC8RS0_ @ 94 NONAME
	_ZN11TSerializerI18CMobilePhoneCWListE10SerialiseLERKS0_R5RBuf8 @ 95 NONAME
	_ZN11TSerializerI18CMobilePhoneCWListE12DeserialiseLERK6TDesC8RS0_ @ 96 NONAME
	_ZN11TSerializerI20CMobilePhoneListBaseE10SerialiseLERKS0_R5RBuf8 @ 97 NONAME
	_ZN11TSerializerI20CMobilePhoneListBaseE12DeserialiseLERK6TDesC8RS0_ @ 98 NONAME
	_ZN11TSerializerI20CMobilePhoneSmspListE10SerialiseLERKS0_R5RBuf8 @ 99 NONAME
	_ZN11TSerializerI20CMobilePhoneSmspListE12DeserialiseLERK6TDesC8RS0_ @ 100 NONAME
	_ZN11TSerializerI21TContextConfigurationE10SerialiseLERKS0_R5RBuf8 @ 101 NONAME
	_ZN11TSerializerI21TContextConfigurationE12DeserialiseLERK6TDesC8RS0_ @ 102 NONAME
	_ZN11TSerializerI25TSendSmsDataAndAttributesE10SerialiseLES0_R5RBuf8 @ 103 NONAME
	_ZN11TSerializerI25TSendSmsDataAndAttributesE12DeserialiseLERK6TDesC8RS0_ @ 104 NONAME
	_ZN11TSerializerI27CMobilePhoneBroadcastIdListE10SerialiseLERKS0_R5RBuf8 @ 105 NONAME
	_ZN11TSerializerI27CMobilePhoneBroadcastIdListE12DeserialiseLERK6TDesC8RS0_ @ 106 NONAME
	_ZN11TSerializerI29CMobilePhoneStoredNetworkListE10SerialiseLERKS0_R5RBuf8 @ 107 NONAME
	_ZN11TSerializerI29CMobilePhoneStoredNetworkListE12DeserialiseLERK6TDesC8RS0_ @ 108 NONAME
	_ZN11TSerializerI29CPcktMbmsMonitoredServiceListE10SerialiseLERKS0_R5RBuf8 @ 109 NONAME
	_ZN11TSerializerI29CPcktMbmsMonitoredServiceListE12DeserialiseLERK6TDesC8RS0_ @ 110 NONAME
	_ZN11TSerializerI30TMmMbmsActiveServiceListParamsE10SerialiseLERKS0_R5RBuf8 @ 111 NONAME
	_ZN11TSerializerI30TMmMbmsActiveServiceListParamsE12DeserialiseLERK6TDesC8RS0_ @ 112 NONAME
	_ZN11TSerializerI31TMmMbmsMonitorServiceListParamsE10SerialiseLERKS0_R5RBuf8 @ 113 NONAME
	_ZN11TSerializerI31TMmMbmsMonitorServiceListParamsE12DeserialiseLERK6TDesC8RS0_ @ 114 NONAME
	_ZN11TSerializerIN12RMmCustomAPI13TOperatorLogoEE10SerialiseLERKS1_R5RBuf8 @ 115 NONAME
	_ZN11TSerializerIN12RMmCustomAPI13TOperatorLogoEE12DeserialiseLERK6TDesC8RS1_ @ 116 NONAME
	_ZN11TSerializerIN14RPacketContext24CTFTMediaAuthorizationV3EE10SerialiseLERKS1_R5RBuf8 @ 117 NONAME
	_ZN11TSerializerIN14RPacketContext24CTFTMediaAuthorizationV3EE12DeserialiseLERK6TDesC8RS1_ @ 118 NONAME
	_ZN11TSerializerIN18RPacketMbmsContext12CMbmsSessionEE10SerialiseLERKS1_R5RBuf8 @ 119 NONAME
	_ZN11TSerializerIN18RPacketMbmsContext12CMbmsSessionEE12DeserialiseLERK6TDesC8RS1_ @ 120 NONAME
	_ZN11TSerializerIP12CArrayPtrSegI20CPhoneBookStoreEntryEE10SerialiseLEPKS2_R5RBuf8 @ 121 NONAME
	_ZN11TSerializerIP12CArrayPtrSegI20CPhoneBookStoreEntryEE12DeserialiseLERK6TDesC8RS3_ @ 122 NONAME
	_ZN11TSerializerIP20CPhoneBookStoreEntryE10SerialiseLEPKS0_R5RBuf8 @ 123 NONAME
	_ZN11TSerializerIP20CPhoneBookStoreEntryE12DeserialiseLERK6TDesC8RS1_ @ 124 NONAME
	_ZN11TSerializerIP25CMobilePhoneNetworkListV2E10SerialiseLEPKS0_R5RBuf8 @ 125 NONAME
	_ZN11TSerializerIP25CMobilePhoneNetworkListV2E12DeserialiseLERK6TDesC8RS1_ @ 126 NONAME
	_ZN11TSerializerIP6TDesC8E10SerialiseLEPKS0_R5RBuf8 @ 127 NONAME
	_ZN11TSerializerIP6TDesC8E12DeserialiseLERKS0_RS1_ @ 128 NONAME
	_ZN11TSerializerIP7TDesC16E10SerialiseLEPKS0_R5RBuf8 @ 129 NONAME
	_ZN11TSerializerIP7TDesC16E12DeserialiseLERK6TDesC8RS1_ @ 130 NONAME
	_ZN11TSerializerIPN14RPacketContext24CTFTMediaAuthorizationV3EE10SerialiseLEPKS1_R5RBuf8 @ 131 NONAME
	_ZN11TSerializerIPN14RPacketContext24CTFTMediaAuthorizationV3EE12DeserialiseLERK6TDesC8RS2_ @ 132 NONAME
	_ZN12TConstructorI18CMobilePhoneCFListE10ConstructLERPS0_ @ 133 NONAME
	_ZN12TConstructorI18CMobilePhoneCWListE10ConstructLERPS0_ @ 134 NONAME
	_ZN12TConstructorI20CMobilePhoneSmspListE10ConstructLERPS0_ @ 135 NONAME
	_ZN12TConstructorI27CMobilePhoneBroadcastIdListE10ConstructLERPS0_ @ 136 NONAME
	_ZN12TConstructorI29CMobilePhoneStoredNetworkListE10ConstructLERPS0_ @ 137 NONAME
	_ZN12TConstructorI29CPcktMbmsMonitoredServiceListE10ConstructLERPS0_ @ 138 NONAME
	_ZN12TConstructorIN12RMobilePhone14TMultimodeTypeEE10ConstructLERPS1_ @ 139 NONAME
	_ZN12TConstructorIN14RPacketContext24CTFTMediaAuthorizationV3EE10ConstructLERPS1_ @ 140 NONAME
	_ZN12TConstructorIN18RPacketMbmsContext12CMbmsSessionEE10ConstructLERPS1_ @ 141 NONAME
	_ZN18TMockLtsyCallData012DeserialiseLERK6TDesC8 @ 142 NONAME
	_ZN18TMockLtsyCallData0C1EiN12RMobilePhone14TMobileServiceE @ 143 NONAME
	_ZN18TMockLtsyCallData0C1Ev @ 144 NONAME
	_ZN18TMockLtsyCallData0C2EiN12RMobilePhone14TMobileServiceE @ 145 NONAME
	_ZN18TMockLtsyCallData0C2Ev @ 146 NONAME
	_ZN21TMockLtsyContextData012DeserialiseLERK6TDesC8 @ 147 NONAME
	_ZN21TMockLtsyContextData024ContextConfigurationTypeEv @ 148 NONAME
	_ZN21TMockLtsyContextData06ConfigEv @ 149 NONAME
	_ZN21TMockLtsyContextData0C1ERN14RPacketContext18TContextConfigGPRSEi @ 150 NONAME
	_ZN21TMockLtsyContextData0C1Ev @ 151 NONAME
	_ZN21TMockLtsyContextData0C2ERN14RPacketContext18TContextConfigGPRSEi @ 152 NONAME
	_ZN21TMockLtsyContextData0C2Ev @ 153 NONAME
	_ZN22TPacketQoSR5Negotiated12InternalizeLER11RReadStream @ 154 NONAME
	_ZN22TPacketQoSR5NegotiatedC1Ev @ 155 NONAME
	_ZN22TPacketQoSR5NegotiatedC2Ev @ 156 NONAME
	_ZN23TMockLtsyPacketQoSData012DeserialiseLERK6TDesC8 @ 157 NONAME
	_ZN23TMockLtsyPacketQoSData015QoSR5NegotiatedEv @ 158 NONAME
	_ZN23TMockLtsyPacketQoSData017QoSGPRSNegotiatedEv @ 159 NONAME
	_ZN23TMockLtsyPacketQoSData019QoSR99_R4NegotiatedEv @ 160 NONAME
	_ZN23TMockLtsyPacketQoSData0C1ER24TPacketQoSGPRSNegotiatedR26TPacketQoSR99_R4NegotiatedR22TPacketQoSR5Negotiated @ 161 NONAME
	_ZN23TMockLtsyPacketQoSData0C1Ev @ 162 NONAME
	_ZN23TMockLtsyPacketQoSData0C2ER24TPacketQoSGPRSNegotiatedR26TPacketQoSR99_R4NegotiatedR22TPacketQoSR5Negotiated @ 163 NONAME
	_ZN23TMockLtsyPacketQoSData0C2Ev @ 164 NONAME
	_ZN23TMockLtsyPhoneBookData012DeserialiseLERK6TDesC8 @ 165 NONAME
	_ZN23TMockLtsyPhoneBookData013PhoneBookNameEv @ 166 NONAME
	_ZN23TMockLtsyPhoneBookData0C1ER4TBufILi128EE @ 167 NONAME
	_ZN23TMockLtsyPhoneBookData0C1Ev @ 168 NONAME
	_ZN23TMockLtsyPhoneBookData0C2ER4TBufILi128EE @ 169 NONAME
	_ZN23TMockLtsyPhoneBookData0C2Ev @ 170 NONAME
	_ZN24TPacketQoSGPRSNegotiated12InternalizeLER11RReadStream @ 171 NONAME
	_ZN24TPacketQoSGPRSNegotiatedC1Ev @ 172 NONAME
	_ZN24TPacketQoSGPRSNegotiatedC2Ev @ 173 NONAME
	_ZN26TPacketQoSR99_R4Negotiated12InternalizeLER11RReadStream @ 174 NONAME
	_ZN26TPacketQoSR99_R4NegotiatedC1Ev @ 175 NONAME
	_ZN26TPacketQoSR99_R4NegotiatedC2Ev @ 176 NONAME
	_ZN9RMockLtsy10ServerNameEv @ 177 NONAME
	_ZN9RMockLtsy7ExpectLEiRK6TDesC8ii @ 178 NONAME
	_ZN9RMockLtsy7ExpectLEiii @ 179 NONAME
	_ZN9RMockLtsy9CompleteLEiiRK6TDesC8i @ 180 NONAME
	_ZN9RMockLtsy9CompleteLEiii @ 181 NONAME
	_ZNK14TMockLtsyData0eqERK6TDesC8 @ 182 NONAME
	_ZNK18TMockLtsyCallData010SerialiseLER5RBuf8 @ 183 NONAME
	_ZNK18TMockLtsyCallData06CallIdEv @ 184 NONAME
	_ZNK18TMockLtsyCallData08CallModeEv @ 185 NONAME
	_ZNK18TMockLtsyCallData0eqERK6TDesC8 @ 186 NONAME
	_ZNK21TMockLtsyContextData010SerialiseLER5RBuf8 @ 187 NONAME
	_ZNK21TMockLtsyContextData0eqERK6TDesC8 @ 188 NONAME
	_ZNK22TPacketQoSR5Negotiated12ExternalizeLER12RWriteStream @ 189 NONAME
	_ZNK22TPacketQoSR5NegotiatedeqERKS_ @ 190 NONAME
	_ZNK23TMockLtsyPacketQoSData010SerialiseLER5RBuf8 @ 191 NONAME
	_ZNK23TMockLtsyPacketQoSData0eqERK6TDesC8 @ 192 NONAME
	_ZNK23TMockLtsyPhoneBookData010SerialiseLER5RBuf8 @ 193 NONAME
	_ZNK23TMockLtsyPhoneBookData0eqERK6TDesC8 @ 194 NONAME
	_ZNK24TPacketQoSGPRSNegotiated12ExternalizeLER12RWriteStream @ 195 NONAME
	_ZNK24TPacketQoSGPRSNegotiatedeqERKS_ @ 196 NONAME
	_ZNK26TPacketQoSR99_R4Negotiated12ExternalizeLER12RWriteStream @ 197 NONAME
	_ZNK26TPacketQoSR99_R4NegotiatedeqERKS_ @ 198 NONAME
	_ZTI14TMockLtsyData0 @ 199 NONAME
	_ZTI18TMockLtsyCallData0 @ 200 NONAME
	_ZTI21TMockLtsyContextData0 @ 201 NONAME
	_ZTI23TMockLtsyPacketQoSData0 @ 202 NONAME
	_ZTI23TMockLtsyPhoneBookData0 @ 203 NONAME
	_ZTI9RMockLtsy @ 204 NONAME
	_ZTV14TMockLtsyData0 @ 205 NONAME
	_ZTV18TMockLtsyCallData0 @ 206 NONAME
	_ZTV21TMockLtsyContextData0 @ 207 NONAME
	_ZTV23TMockLtsyPacketQoSData0 @ 208 NONAME
	_ZTV23TMockLtsyPhoneBookData0 @ 209 NONAME
	_ZTV9RMockLtsy @ 210 NONAME
	_ZN11TComparatorIN12RMobilePhone30TMobilePreferredNetworkEntryV3EE7IsEqualERKS1_S4_ @ 211 NONAME

