EXPORTS
	_ZN11CEmsSoundIE4NewLERK6TDesC8 @ 1 NONAME
	_ZN11CEmsSoundIE5CopyLERKS_ @ 2 NONAME
	_ZN11CEmsSoundIED0Ev @ 3 NONAME
	_ZN11CEmsSoundIED1Ev @ 4 NONAME
	_ZN11CEmsSoundIED2Ev @ 5 NONAME
	_ZN12CEmsFormatIE11SetFontSizeENS_9TFontSizeE @ 6 NONAME
	_ZN12CEmsFormatIE12SetAlignmentENS_10TAlignmentE @ 7 NONAME
	_ZN12CEmsFormatIE12SetUnderlineEi @ 8 NONAME
	_ZN12CEmsFormatIE15SetFormatLengthEj @ 9 NONAME
	_ZN12CEmsFormatIE16SetStrikethroughEi @ 10 NONAME
	_ZN12CEmsFormatIE4NewLEv @ 11 NONAME
	_ZN12CEmsFormatIE5CopyLERKS_ @ 12 NONAME
	_ZN12CEmsFormatIE7SetBoldEi @ 13 NONAME
	_ZN12CEmsFormatIE9SetItalicEi @ 14 NONAME
	_ZN12CSmsPduDbPdu4NewLER3RFsRK15CTestConfigItemN7CSmsPDU11TSmsPDUTypeE @ 15 NONAME
	_ZN12CSmsUserData12IsSupportedLE5TChar @ 16 NONAME
	_ZN12CSmsUserData22AddInformationElementLEN22CSmsInformationElement32TSmsInformationElementIdentifierERK6TDesC8 @ 17 NONAME
	_ZN12CSmsUserData24RemoveInformationElementEi @ 18 NONAME
	_ZN12CSmsUserData8SetBodyLERK6TDesC8 @ 19 NONAME
	_ZN12EmsTestUtils12CompareEmsIEERK22CEmsInformationElementS2_ @ 20 NONAME
	_ZN12EmsTestUtils12FindElementLERK11CSmsMessageN22CSmsInformationElement32TSmsInformationElementIdentifierE @ 21 NONAME
	_ZN12EmsTestUtils14CompareEmsMsgLERK11CSmsMessageS2_ @ 22 NONAME
	_ZN12EmsTestUtils14CreatePictureLEi @ 23 NONAME
	_ZN12EmsTestUtils16CreateAnimationLEi @ 24 NONAME
	_ZN13CEmsPictureIE4NewLERK10CFbsBitmap @ 25 NONAME
	_ZN13CEmsPictureIE5CopyLERKS_ @ 26 NONAME
	_ZN13CEmsPictureIED0Ev @ 27 NONAME
	_ZN13CEmsPictureIED1Ev @ 28 NONAME
	_ZN13CEmsPictureIED2Ev @ 29 NONAME
	_ZN13CSmsPduDbBaseD0Ev @ 30 NONAME
	_ZN13CSmsPduDbBaseD1Ev @ 31 NONAME
	_ZN13CSmsPduDbBaseD2Ev @ 32 NONAME
	_ZN14CEmsUserPrompt14SetObjectCountEj @ 33 NONAME
	_ZN14CEmsUserPrompt4NewLEj @ 34 NONAME
	_ZN14CEmsUserPrompt5CopyLERKS_ @ 35 NONAME
	_ZN15CEmsAnimationIE4NewLERK10CFbsBitmap @ 36 NONAME
	_ZN15CEmsAnimationIE5CopyLERKS_ @ 37 NONAME
	_ZN15CEmsAnimationIED0Ev @ 38 NONAME
	_ZN15CEmsAnimationIED1Ev @ 39 NONAME
	_ZN15CEmsAnimationIED2Ev @ 40 NONAME
	_ZN15CSmsPduDatabase4NewLER3RFs @ 41 NONAME
	_ZN15CSmsPduDatabase4NewLER3RFsRK18CTestConfigSection @ 42 NONAME
	_ZN15CSmsPduDatabase4NewLER3RFsRK6TDesC8RK7TDesC16S7_ @ 43 NONAME
	_ZN15CSmsPduDatabaseD0Ev @ 44 NONAME
	_ZN15CSmsPduDatabaseD1Ev @ 45 NONAME
	_ZN15CSmsPduDatabaseD2Ev @ 46 NONAME
	_ZN15CSmsPduDbConcat7DecodeLER3RFs @ 47 NONAME
	_ZN15CSmsPduDbConcatD0Ev @ 48 NONAME
	_ZN15CSmsPduDbConcatD1Ev @ 49 NONAME
	_ZN15CSmsPduDbConcatD2Ev @ 50 NONAME
	_ZN15CTestGetSmsList10GetSmsListER14TRequestStatus @ 51 NONAME
	_ZN15CTestGetSmsList4NewLEiR11RSocketServR18CSmsStackTestUtils @ 52 NONAME
	_ZN16CSmsPduDbMessage4NewLER3RFsRK15CTestConfigItemN7CSmsPDU11TSmsPDUTypeE @ 53 NONAME
	_ZN16TGsmSmsTelNumber12IsInstanceOfENS_16TTypeOfIndicatorE @ 54 NONAME
	_ZN17CEmsPreDefSoundIE4NewLENS_16TPredefinedSoundE @ 55 NONAME
	_ZN17CEmsPreDefSoundIE5CopyLERKS_ @ 56 NONAME
	_ZN18CSmsStackTestUtils10CompareUDLERK7CSmsPDURK12CSmsUserData @ 57 NONAME
	_ZN18CSmsStackTestUtils10GetBearerLERN19RMobileSmsMessaging16TMobileSmsBearerE @ 58 NONAME
	_ZN18CSmsStackTestUtils11CompareDCSLERK7CSmsPDU20TSmsDataCodingScheme @ 59 NONAME
	_ZN18CSmsStackTestUtils11ComparePIDLERK7CSmsPDU22TSmsProtocolIdentifier @ 60 NONAME
	_ZN18CSmsStackTestUtils12AddLogEventLER11CSmsMessageR14TLogSmsPduData @ 61 NONAME
	_ZN18CSmsStackTestUtils12GetLogEventLER9CLogEventi @ 62 NONAME
	_ZN18CSmsStackTestUtils12StoreParamsLER20CMobilePhoneSmspListR7RSocketi @ 63 NONAME
	_ZN18CSmsStackTestUtils13ChangeBearerLEN19RMobileSmsMessaging16TMobileSmsBearerE @ 64 NONAME
	_ZN18CSmsStackTestUtils13PrintSmspListER20CMobilePhoneSmspList @ 65 NONAME
	_ZN18CSmsStackTestUtils14OpenSmsSocketLER11RSocketServR7RSocket14TSmsAddrFamily @ 66 NONAME
	_ZN18CSmsStackTestUtils14OpenSmsSocketLER11RSocketServR7RSocketR8TSmsAddr @ 67 NONAME
	_ZN18CSmsStackTestUtils14PrintSmspEntryERN19RMobileSmsMessaging18TMobileSmspEntryV1E @ 68 NONAME
	_ZN18CSmsStackTestUtils14TestParametersER20CMobilePhoneSmspListS1_ @ 69 NONAME
	_ZN18CSmsStackTestUtils15AppendUserDataLER7TGsmSmsRK12CSmsUserDatai @ 70 NONAME
	_ZN18CSmsStackTestUtils15CopyConfigFileLERK7TDesC16P15CSmsPduDatabase @ 71 NONAME
	_ZN18CSmsStackTestUtils15OpenSmsSocketLCER11RSocketServR7RSocket14TSmsAddrFamily @ 72 NONAME
	_ZN18CSmsStackTestUtils15OpenSmsSocketLCER11RSocketServR7RSocketR8TSmsAddr @ 73 NONAME
	_ZN18CSmsStackTestUtils15RetrieveParamsLER20CMobilePhoneSmspListR7RSocketi @ 74 NONAME
	_ZN18CSmsStackTestUtils16TestPhoneNumbersERKN12RMobilePhone14TMobileAddressES3_ @ 75 NONAME
	_ZN18CSmsStackTestUtils17FirstDeliverOctetEiiii @ 76 NONAME
	_ZN18CSmsStackTestUtils18CreateSmsMessageLCEN7CSmsPDU11TSmsPDUTypeERK7TDesC16S4_ @ 77 NONAME
	_ZN18CSmsStackTestUtils18WaitForInitializeLEv @ 78 NONAME
	_ZN18CSmsStackTestUtils19PrintAndTestDecodeLERK7TGsmSms20TSmsDataCodingScheme22TSmsProtocolIdentifierRK12CSmsUserDataii @ 79 NONAME
	_ZN18CSmsStackTestUtils23DeliverWithoutUserDataLER7TGsmSms14TSmsFirstOctetRK16TGsmSmsTelNumber22TSmsProtocolIdentifier20TSmsDataCodingSchemeRK5TTimei @ 80 NONAME
	_ZN18CSmsStackTestUtils23SendSmsAndChangeBearerLEP11CSmsMessageR7RSocketN19RMobileSmsMessaging16TMobileSmsBearerE @ 81 NONAME
	_ZN18CSmsStackTestUtils24StoreParamsLeaveIfErrorLER20CMobilePhoneSmspListR7RSocket @ 82 NONAME
	_ZN18CSmsStackTestUtils25CreateTSmsValidityPeriodLEv @ 83 NONAME
	_ZN18CSmsStackTestUtils25DecodeTSmsValidityPeriodLEv @ 84 NONAME
	_ZN18CSmsStackTestUtils25EncodeTSmsValidityPeriodLEv @ 85 NONAME
	_ZN18CSmsStackTestUtils26MakeParametersReadRequestLER7RSocket @ 86 NONAME
	_ZN18CSmsStackTestUtils33CreateTSmsServiceCenterTimeStampLEv @ 87 NONAME
	_ZN18CSmsStackTestUtils33DecodeTSmsServiceCenterTimeStampLEv @ 88 NONAME
	_ZN18CSmsStackTestUtils33EncodeTSmsServiceCenterTimeStampLEv @ 89 NONAME
	_ZN18CSmsStackTestUtils4NewLEP9CTestStepR3RFs @ 90 NONAME
	_ZN18CSmsStackTestUtilsD0Ev @ 91 NONAME
	_ZN18CSmsStackTestUtilsD1Ev @ 92 NONAME
	_ZN18CSmsStackTestUtilsD2Ev @ 93 NONAME
	_ZN18CVoiceMailDeletion12SetMessageIdEt @ 94 NONAME
	_ZN18CVoiceMailDeletion4NewLEv @ 95 NONAME
	_ZN18CVoiceMailDeletionD0Ev @ 96 NONAME
	_ZN18CVoiceMailDeletionD1Ev @ 97 NONAME
	_ZN18CVoiceMailDeletionD2Ev @ 98 NONAME
	_ZN20CTestReceiveMessages4NewLEiR11RSocketServR18CSmsStackTestUtils @ 99 NONAME
	_ZN20CTestReceiveMessages7ReceiveER14TRequestStatusi @ 100 NONAME
	_ZN20CTestReceiveMessages7ReceiveEv @ 101 NONAME
	_ZN20TGsmSmsTypeOfAddress13SetFromETelMMEN12NMobilePhone10TMobileTONENS0_10TMobileNPIE @ 102 NONAME
	_ZN21CEmsPreDefAnimationIE13SetAnimationLENS_9TAnimTypeE @ 103 NONAME
	_ZN21CEmsPreDefAnimationIE4NewLENS_9TAnimTypeE @ 104 NONAME
	_ZN21CEmsPreDefAnimationIE5CopyLERKS_ @ 105 NONAME
	_ZN21CSmsAlphabetConverter16ConvertToNativeLERK6TDesC8 @ 106 NONAME
	_ZN21CSmsAlphabetConverter18ConvertFromNativeLERK7TDesC16 @ 107 NONAME
	_ZN21CSmsAlphabetConverter5NewLCER25CCnvCharacterSetConverterR3RFsN20TSmsDataCodingScheme12TSmsAlphabetEi @ 108 NONAME
	_ZN21CSmsAlphabetConverterD0Ev @ 109 NONAME
	_ZN21CSmsAlphabetConverterD1Ev @ 110 NONAME
	_ZN21CSmsAlphabetConverterD2Ev @ 111 NONAME
	_ZN22CEmsInformationElement16SetStartPositionEj @ 112 NONAME
	_ZN22CEmsInformationElement25EncodeInformationElementLEv @ 113 NONAME
	_ZN22CEmsObjectDistribution13SetForwardingENS_6TAttrsE @ 114 NONAME
	_ZN22CEmsObjectDistribution14SetObjectCountEj @ 115 NONAME
	_ZN22CEmsObjectDistribution4NewLEjNS_6TAttrsE @ 116 NONAME
	_ZN22CEmsObjectDistribution5CopyLERKS_ @ 117 NONAME
	_ZN22CSmsInformationElement4DataEv @ 118 NONAME
	_ZN22CSmsPduDbConcatSegment4NewLER3RFsRK15CTestConfigItemN7CSmsPDU11TSmsPDUTypeE @ 119 NONAME
	_ZN22CVoiceMailNotification12SetMessageIdEt @ 120 NONAME
	_ZN22CVoiceMailNotification16SetMessageLengthEh @ 121 NONAME
	_ZN22CVoiceMailNotification16SetRetentionDaysEh @ 122 NONAME
	_ZN22CVoiceMailNotification21SetPriorityIndicationEi @ 123 NONAME
	_ZN22CVoiceMailNotification23SetCallingLineIdentityLER7TDesC16 @ 124 NONAME
	_ZN22CVoiceMailNotification29SetParsedCallingLineIdentityLER16TGsmSmsTelNumber @ 125 NONAME
	_ZN22CVoiceMailNotification4NewLEv @ 126 NONAME
	_ZN22CVoiceMailNotificationD0Ev @ 127 NONAME
	_ZN22CVoiceMailNotificationD1Ev @ 128 NONAME
	_ZN22CVoiceMailNotificationD2Ev @ 129 NONAME
	_ZN29CTestReceiveEnumerateMessages4NewLEiR11RSocketServR18CSmsStackTestUtils @ 130 NONAME
	_ZN29CTestReceiveEnumerateMessages5StartEiii @ 131 NONAME
	_ZN29CTestReceiveEnumerateMessagesD0Ev @ 132 NONAME
	_ZN29CTestReceiveEnumerateMessagesD1Ev @ 133 NONAME
	_ZN29CTestReceiveEnumerateMessagesD2Ev @ 134 NONAME
	_ZN30CEnhancedVoiceMailNotification18NumberOfVoiceMailsEv @ 135 NONAME
	_ZN30CEnhancedVoiceMailNotification25GetVoiceMailNotificationsEv @ 136 NONAME
	_ZN30CEnhancedVoiceMailNotification4NewLEv @ 137 NONAME
	_ZN30CEnhancedVoiceMailNotificationD0Ev @ 138 NONAME
	_ZN30CEnhancedVoiceMailNotificationD1Ev @ 139 NONAME
	_ZN30CEnhancedVoiceMailNotificationD2Ev @ 140 NONAME
	_ZN32CEnhancedVoiceMailBoxInformation10SetProfileE22TSmsMessageProfileType @ 141 NONAME
	_ZN32CEnhancedVoiceMailBoxInformation10SetStorageEi @ 142 NONAME
	_ZN32CEnhancedVoiceMailBoxInformation17SetAccessAddressLERK7TDesC16 @ 143 NONAME
	_ZN32CEnhancedVoiceMailBoxInformation18SetMaximumCapacityEi @ 144 NONAME
	_ZN32CEnhancedVoiceMailBoxInformation23SetParsedAccessAddressLERK16TGsmSmsTelNumber @ 145 NONAME
	_ZN32CEnhancedVoiceMailBoxInformation24SetAlmostMaximumCapacityEi @ 146 NONAME
	_ZN32CEnhancedVoiceMailBoxInformation24SetNumberOfVoiceMessagesEh @ 147 NONAME
	_ZN37CEnhancedVoiceMailDeleteConfirmations15NumberOfDeletesEv @ 148 NONAME
	_ZN37CEnhancedVoiceMailDeleteConfirmations21GetVoiceMailDeletionsEv @ 149 NONAME
	_ZN37CEnhancedVoiceMailDeleteConfirmations4NewLEv @ 150 NONAME
	_ZN37CEnhancedVoiceMailDeleteConfirmationsD0Ev @ 151 NONAME
	_ZN37CEnhancedVoiceMailDeleteConfirmationsD1Ev @ 152 NONAME
	_ZN37CEnhancedVoiceMailDeleteConfirmationsD2Ev @ 153 NONAME
	_ZNK11CEmsSoundIE10DuplicateLEv @ 154 NONAME
	_ZNK11CEmsSoundIE6MelodyEv @ 155 NONAME
	_ZNK12CEmsFormatIE10DuplicateLEv @ 156 NONAME
	_ZNK12CEmsFormatIE12FormatLengthEv @ 157 NONAME
	_ZNK12CEmsFormatIE13StrikethroughEv @ 158 NONAME
	_ZNK12CEmsFormatIE4BoldEv @ 159 NONAME
	_ZNK12CEmsFormatIE6ItalicEv @ 160 NONAME
	_ZNK12CEmsFormatIE8FontSizeEv @ 161 NONAME
	_ZNK12CEmsFormatIE9AlignmentEv @ 162 NONAME
	_ZNK12CEmsFormatIE9UnderlineEv @ 163 NONAME
	_ZNK12CSmsPduDbPdu9GetHexPduER5TDes8 @ 164 NONAME
	_ZNK12CSmsUserData18InformationElementEi @ 165 NONAME
	_ZNK12CSmsUserData20MaxBodyLengthInCharsEv @ 166 NONAME
	_ZNK12CSmsUserData23InformationElementIndexEN22CSmsInformationElement32TSmsInformationElementIdentifierERi @ 167 NONAME
	_ZNK12CSmsUserData4BodyEv @ 168 NONAME
	_ZNK13CEmsPictureIE10DuplicateLEv @ 169 NONAME
	_ZNK13CEmsPictureIE10GetBitmapLEv @ 170 NONAME
	_ZNK13CEmsPictureIE12SizeInPixelsEv @ 171 NONAME
	_ZNK14CEmsUserPrompt10DuplicateLEv @ 172 NONAME
	_ZNK14CEmsUserPrompt11ObjectCountEv @ 173 NONAME
	_ZNK15CEmsAnimationIE10DuplicateLEv @ 174 NONAME
	_ZNK15CEmsAnimationIE10GetBitmapLEv @ 175 NONAME
	_ZNK15CSmsPduDatabase10GetConcatLER13RPointerArrayI15CSmsPduDbConcatEN7CSmsPDU11TSmsPDUTypeE @ 176 NONAME
	_ZNK15CSmsPduDatabase10PduFactoryERK15CTestConfigItemN7CSmsPDU11TSmsPDUTypeE @ 177 NONAME
	_ZNK15CSmsPduDatabase10PduFactoryERK6TDesC8N7CSmsPDU11TSmsPDUTypeE @ 178 NONAME
	_ZNK15CSmsPduDatabase11GetConcatLCEN7CSmsPDU11TSmsPDUTypeEi @ 179 NONAME
	_ZNK15CSmsPduDatabase11GetMessageLER13RPointerArrayI16CSmsPduDbMessageEN7CSmsPDU11TSmsPDUTypeE @ 180 NONAME
	_ZNK15CSmsPduDatabase11PduFactoryLERK15CTestConfigItemN7CSmsPDU11TSmsPDUTypeE @ 181 NONAME
	_ZNK15CSmsPduDatabase11PduFactoryLERK6TDesC8N7CSmsPDU11TSmsPDUTypeE @ 182 NONAME
	_ZNK15CSmsPduDatabase12GetMessageLCEN7CSmsPDU11TSmsPDUTypeEi @ 183 NONAME
	_ZNK15CSmsPduDatabase12RewriteFileLERK7TDesC16S2_S2_ @ 184 NONAME
	_ZNK15CSmsPduDatabase18GetConcatSegmentLCEN7CSmsPDU11TSmsPDUTypeEii @ 185 NONAME
	_ZNK15CSmsPduDatabase7GetPduLER13RPointerArrayI12CSmsPduDbPduEN7CSmsPDU11TSmsPDUTypeE @ 186 NONAME
	_ZNK15CSmsPduDatabase8GetPduLCEN7CSmsPDU11TSmsPDUTypeEi @ 187 NONAME
	_ZNK17CEmsPreDefSoundIE10DuplicateLEv @ 188 NONAME
	_ZNK17CEmsPreDefSoundIE15PredefinedSoundEv @ 189 NONAME
	_ZNK18CSmsStackTestUtils11GetSectionLER11CTestConfigi @ 190 NONAME
	_ZNK18CSmsStackTestUtils14ConvertToHexLCERK6TDesC8 @ 191 NONAME
	_ZNK18CSmsStackTestUtils9AddSmsRxLER11CTestConfigiR11CSmsMessageRK7TDesC16 @ 192 NONAME
	_ZNK18CSmsStackTestUtils9AddSmsTxLER11CTestConfigiR11CSmsMessageRK7TDesC16iPS2_i @ 193 NONAME
	_ZNK18CVoiceMailDeletion26MessageExtensionIndicationEv @ 194 NONAME
	_ZNK18CVoiceMailDeletion9MessageIdEv @ 195 NONAME
	_ZNK20TGsmSmsTypeOfAddress15ConvertToETelMMERN12NMobilePhone10TMobileTONERNS0_10TMobileNPIE @ 196 NONAME
	_ZNK21CEmsPreDefAnimationIE10DuplicateLEv @ 197 NONAME
	_ZNK21CEmsPreDefAnimationIE9AnimationEv @ 198 NONAME
	_ZNK22CEmsInformationElement13StartPositionEv @ 199 NONAME
	_ZNK22CEmsInformationElement6LengthEv @ 200 NONAME
	_ZNK22CEmsObjectDistribution10DuplicateLEv @ 201 NONAME
	_ZNK22CEmsObjectDistribution10ForwardingEv @ 202 NONAME
	_ZNK22CEmsObjectDistribution11ObjectCountEv @ 203 NONAME
	_ZNK22CSmsInformationElement10IdentifierEv @ 204 NONAME
	_ZNK22CSmsInformationElement4DataEv @ 205 NONAME
	_ZNK22CVoiceMailNotification13MessageLengthEv @ 206 NONAME
	_ZNK22CVoiceMailNotification13RetentionDaysEv @ 207 NONAME
	_ZNK22CVoiceMailNotification18PriorityIndicationEv @ 208 NONAME
	_ZNK22CVoiceMailNotification19CallingLineIdentityEv @ 209 NONAME
	_ZNK22CVoiceMailNotification25ParsedCallingLineIdentityER16TGsmSmsTelNumber @ 210 NONAME
	_ZNK22CVoiceMailNotification26MessageExtensionIndicationEv @ 211 NONAME
	_ZNK22CVoiceMailNotification9MessageIdEv @ 212 NONAME
	_ZNK32CEnhancedVoiceMailBoxInformation13AccessAddressEv @ 213 NONAME
	_ZNK32CEnhancedVoiceMailBoxInformation15MaximumCapacityEv @ 214 NONAME
	_ZNK32CEnhancedVoiceMailBoxInformation18ExtensionIndicatorEv @ 215 NONAME
	_ZNK32CEnhancedVoiceMailBoxInformation19ParsedAccessAddressER16TGsmSmsTelNumber @ 216 NONAME
	_ZNK32CEnhancedVoiceMailBoxInformation21AlmostMaximumCapacityEv @ 217 NONAME
	_ZNK32CEnhancedVoiceMailBoxInformation21NumberOfVoiceMessagesEv @ 218 NONAME
	_ZNK32CEnhancedVoiceMailBoxInformation4TypeEv @ 219 NONAME
	_ZNK32CEnhancedVoiceMailBoxInformation5StoreEv @ 220 NONAME
	_ZNK32CEnhancedVoiceMailBoxInformation7ProfileEv @ 221 NONAME
	_ZTI11CEmsSoundIE @ 222 NONAME
	_ZTI11CSmsAddress @ 223 NONAME
	_ZTI12CEmsFormatIE @ 224 NONAME
	_ZTI12CSmsPduDbPdu @ 225 NONAME
	_ZTI12CSmsUserData @ 226 NONAME
	_ZTI13CEmsPictureIE @ 227 NONAME
	_ZTI13CSmsPduDbBase @ 228 NONAME
	_ZTI14CEmsUserPrompt @ 229 NONAME
	_ZTI15CEmsAnimationIE @ 230 NONAME
	_ZTI15CSmsCommandData @ 231 NONAME
	_ZTI15CSmsPduDatabase @ 232 NONAME
	_ZTI15CSmsPduDbConcat @ 233 NONAME
	_ZTI15CTestGetSmsList @ 234 NONAME
	_ZTI16CSmsPduDbMessage @ 235 NONAME
	_ZTI17CEmsPreDefSoundIE @ 236 NONAME
	_ZTI17CTSmsRegTstActive @ 237 NONAME
	_ZTI18CSmsStackTestUtils @ 238 NONAME
	_ZTI18CVoiceMailDeletion @ 239 NONAME
	_ZTI20CTestReceiveMessages @ 240 NONAME
	_ZTI21CEmsPreDefAnimationIE @ 241 NONAME
	_ZTI21CSmsAlphabetConverter @ 242 NONAME
	_ZTI22CEmsInformationElement @ 243 NONAME
	_ZTI22CEmsObjectDistribution @ 244 NONAME
	_ZTI22CSmsInformationElement @ 245 NONAME
	_ZTI22CSmsPduDbConcatSegment @ 246 NONAME
	_ZTI22CVoiceMailNotification @ 247 NONAME
	_ZTI29CTestReceiveEnumerateMessages @ 248 NONAME
	_ZTI30CEnhancedVoiceMailNotification @ 249 NONAME
	_ZTI32CEnhancedVoiceMailBoxInformation @ 250 NONAME
	_ZTI37CEnhancedVoiceMailDeleteConfirmations @ 251 NONAME
	_ZTV11CEmsSoundIE @ 252 NONAME
	_ZTV11CSmsAddress @ 253 NONAME
	_ZTV12CEmsFormatIE @ 254 NONAME
	_ZTV12CSmsPduDbPdu @ 255 NONAME
	_ZTV12CSmsUserData @ 256 NONAME
	_ZTV13CEmsPictureIE @ 257 NONAME
	_ZTV13CSmsPduDbBase @ 258 NONAME
	_ZTV14CEmsUserPrompt @ 259 NONAME
	_ZTV15CEmsAnimationIE @ 260 NONAME
	_ZTV15CSmsCommandData @ 261 NONAME
	_ZTV15CSmsPduDatabase @ 262 NONAME
	_ZTV15CSmsPduDbConcat @ 263 NONAME
	_ZTV15CTestGetSmsList @ 264 NONAME
	_ZTV16CSmsPduDbMessage @ 265 NONAME
	_ZTV17CEmsPreDefSoundIE @ 266 NONAME
	_ZTV17CTSmsRegTstActive @ 267 NONAME
	_ZTV18CSmsStackTestUtils @ 268 NONAME
	_ZTV18CVoiceMailDeletion @ 269 NONAME
	_ZTV20CTestReceiveMessages @ 270 NONAME
	_ZTV21CEmsPreDefAnimationIE @ 271 NONAME
	_ZTV21CSmsAlphabetConverter @ 272 NONAME
	_ZTV22CEmsInformationElement @ 273 NONAME
	_ZTV22CEmsObjectDistribution @ 274 NONAME
	_ZTV22CSmsInformationElement @ 275 NONAME
	_ZTV22CSmsPduDbConcatSegment @ 276 NONAME
	_ZTV22CVoiceMailNotification @ 277 NONAME
	_ZTV29CTestReceiveEnumerateMessages @ 278 NONAME
	_ZTV30CEnhancedVoiceMailNotification @ 279 NONAME
	_ZTV32CEnhancedVoiceMailBoxInformation @ 280 NONAME
	_ZTV37CEnhancedVoiceMailDeleteConfirmations @ 281 NONAME
	_ZN21CSmsAlphabetConverter16ConvertToNativeLERK6TDesC812TSmsEncoding @ 282 NONAME
	_ZN21CSmsAlphabetConverter18ConvertFromNativeLERK7TDesC1612TSmsEncodingRiS4_ @ 283 NONAME
	_ZNK12CSmsUserData12IsSupportedLERK7TDesC1612TSmsEncodingRiS4_S4_S4_ @ 284 NONAME
	_ZNK12CSmsUserData12IsSupportedLERK7TDesC16RiS3_ @ 285 NONAME
	_ZNK12CSmsUserData27InformationElementLastIndexEN22CSmsInformationElement32TSmsInformationElementIdentifierERi @ 286 NONAME
	_ZN18CSmsStackTestUtils13EnableLoggingEv @ 287 NONAME
	_ZN18CSmsStackTestUtils14DisableLoggingEv @ 288 NONAME

