EXPORTS ??0TFaxBandHeader@@QAE@VTStreamId@@@Z @1 NONAME
EXPORTS ??0TFaxBandHeader@@QAE@XZ @2 NONAME
EXPORTS ??1CFaxPageInfo@@UAE@XZ @3 NONAME
EXPORTS ??1CFaxPages@@UAE@XZ @4 NONAME
EXPORTS ??1CReadFaxFile@@UAE@XZ @5 NONAME
EXPORTS ??1CReadFaxPages@@UAE@XZ @6 NONAME
EXPORTS ??1CWriteFaxFile@@UAE@XZ @7 NONAME
EXPORTS ??1CWriteFaxPages@@UAE@XZ @8 NONAME
EXPORTS ?AbortWrite@CWriteFaxFile@@QAEXXZ @9 NONAME
EXPORTS ?AddEncodedScanLineL@CWriteFaxPages@@QAEXABVTDesC8@@@Z @10 NONAME
EXPORTS ?AddScanLineL@CWriteFaxPages@@QAEXABVTDesC8@@@Z @11 NONAME
EXPORTS ?Close@CReadFaxFile@@QAEXXZ @12 NONAME
EXPORTS ?Close@CWriteFaxFile@@QAEXXZ @13 NONAME
EXPORTS ?CommitL@CWriteFaxFile@@QAEXXZ @14 NONAME
EXPORTS ?CommitPageL@CWriteFaxPages@@QAE?AVTStreamId@@XZ @15 NONAME
EXPORTS ?CurrentPageInfo@CReadFaxPages@@QBE?AVTFaxPageInfo@@XZ @16 NONAME
EXPORTS ?EndPageL@CWriteFaxPages@@QAEXW4TFaxResolution@@AAV?$TBuf@$0BE@@@W4TFaxCompression@@H@Z @17 NONAME
EXPORTS ?ExternalizeL@CFaxPageInfo@@QBEXAAVRWriteStream@@@Z @18 NONAME
EXPORTS ?ExternalizeL@CFaxPages@@QBEXAAVRWriteStream@@@Z @19 NONAME
EXPORTS ?ExternalizeL@TFaxBandHeader@@QBEXAAVRWriteStream@@@Z @20 NONAME
EXPORTS ?GetEncodedScanLineL@CReadFaxPages@@QAEXAAVTDes8@@@Z @21 NONAME
EXPORTS ?GetScanLineL@CReadFaxPages@@QAEHAAVTDes8@@@Z @22 NONAME
EXPORTS ?InternalizeL@CFaxPageInfo@@QAEXAAVRReadStream@@@Z @23 NONAME
EXPORTS ?InternalizeL@CFaxPages@@QAEXAAVRReadStream@@@Z @24 NONAME
EXPORTS ?InternalizeL@TFaxBandHeader@@QAEXAAVRReadStream@@@Z @25 NONAME
EXPORTS ?NewL@CFaxPageInfo@@SAPAV1@XZ @26 NONAME
EXPORTS ?NewL@CFaxPages@@SAPAV1@XZ @27 NONAME
EXPORTS ?NewL@CReadFaxFile@@SAPAV1@XZ @28 NONAME
EXPORTS ?NewL@CReadFaxPages@@SAPAV1@AAVCStreamStore@@VTStreamId@@@Z @29 NONAME
EXPORTS ?NewL@CWriteFaxFile@@SAPAV1@XZ @30 NONAME
EXPORTS ?NewL@CWriteFaxPages@@SAPAV1@AAVCStreamStore@@H@Z @31 NONAME
EXPORTS ?NumPages@CReadFaxPages@@QBEHXZ @32 NONAME
EXPORTS ?OpenL@CReadFaxFile@@QAEXABVTDesC16@@@Z @33 NONAME
EXPORTS ?OpenL@CWriteFaxFile@@QAEXABVTDesC16@@H@Z @34 NONAME
EXPORTS ?SeekScanLineL@CReadFaxPages@@QAEXH@Z @35 NONAME
EXPORTS ?SetPageL@CReadFaxPages@@QAEXH@Z @36 NONAME
EXPORTS ?StartPage@CWriteFaxPages@@QAEXW4TFaxResolution@@W4TFaxCompression@@H@Z @37 NONAME
